; Function Attrs: mustprogress nounwind uwtable
define hidden void @_ZN7datalog12mk_bit_blastD0Ev(ptr noundef nonnull align 8 dereferenceable(32) initializes((0, 8)) %0) unnamed_addr #4 align 2 personality ptr @__gxx_personality_v0 {
  store ptr getelementptr inbounds nuw inrange(-16, 32) (i8, ptr @_ZTVN7datalog12mk_bit_blastE, i64 16), ptr %0, align 8, !tbaa !13
  %2 = getelementptr inbounds nuw i8, ptr %0, i64 24
  %3 = load ptr, ptr %2, align 8, !tbaa !15
  %4 = icmp eq ptr %3, null
  br i1 %4, label %_ZN7datalog12mk_bit_blastD2Ev.exit, label %5

5:                                                ; preds = %1
  %6 = getelementptr inbounds nuw i8, ptr %3, i64 456
  store ptr getelementptr inbounds nuw inrange(-16, 16) (i8, ptr @_ZTVN7datalog11expand_mkbvE, i64 16), ptr %6, align 8, !tbaa !13
  %7 = getelementptr inbounds nuw i8, ptr %3, i64 992
  tail call void @_ZN7datalog15expand_mkbv_cfgD2Ev(ptr noundef nonnull align 8 dereferenceable(160) %7) #19
  tail call void @_ZN12rewriter_tplIN7datalog15expand_mkbv_cfgEED2Ev(ptr noundef nonnull align 8 dereferenceable(696) %6) #19
  %8 = getelementptr inbounds nuw i8, ptr %3, i64 448
  tail call void @_ZN20bit_blaster_rewriterD1Ev(ptr noundef nonnull align 8 dereferenceable(8) %8) #19
  %9 = getelementptr inbounds nuw i8, ptr %3, i64 24
  tail call void @_ZN7datalog25mk_interp_tail_simplifierD1Ev(ptr noundef nonnull align 8 dereferenceable(424) %9) #19
  %10 = getelementptr inbounds nuw i8, ptr %3, i64 16
  tail call void @_ZN10params_refD1Ev(ptr noundef nonnull align 8 dereferenceable(8) %10) #19
  invoke void @_ZN6memory10deallocateEPv(ptr noundef nonnull %3)
          to label %_ZN7datalog12mk_bit_blastD2Ev.exit unwind label %11

11:                                               ; preds = %5
  %12 = landingpad { ptr, i32 }
          catch ptr null
  %13 = extractvalue { ptr, i32 } %12, 0
  tail call void @__clang_call_terminate(ptr %13) #20
  unreachable

_ZN7datalog12mk_bit_blastD2Ev.exit:               ; preds = %1, %5
  tail call void @_ZdlPvm(ptr noundef nonnull %0, i64 noundef 32) #21
  ret void
}